; Function Attrs: nounwind sspstrong uwtable
define internal fastcc i64 @build_cipher_string(i64 noundef %0) unnamed_addr #0 {
  %2 = alloca i64, align 8
  call void @llvm.lifetime.start.p0(i64 8, ptr nonnull %2) #9
  %3 = icmp eq i64 %0, 0
  %4 = and i64 %0, 7
  %5 = icmp ne i64 %4, 0
  %6 = or i1 %3, %5
  br i1 %6, label %rbimpl_RB_TYPE_P_fastpath.exit16.thread, label %rbimpl_RB_TYPE_P_fastpath.exit16

rbimpl_RB_TYPE_P_fastpath.exit16:                 ; preds = %1
  %7 = inttoptr i64 %0 to ptr
  %8 = load i64, ptr %7, align 8, !tbaa !18
  %9 = and i64 %8, 31
  %10 = icmp eq i64 %9, 7
  br i1 %10, label %11, label %rbimpl_RB_TYPE_P_fastpath.exit16.thread

11:                                               ; preds = %rbimpl_RB_TYPE_P_fastpath.exit16
  %12 = tail call i64 @rb_str_new_static(ptr noundef null, i64 noundef 0) #9
  %13 = getelementptr inbounds nuw i8, ptr %7, i64 16
  br label %14

14:                                               ; preds = %48, %11
  %indvars.iv = phi i64 [ %indvars.iv.next, %48 ], [ 0, %11 ]
  %15 = load i64, ptr %7, align 8, !tbaa !18
  %16 = and i64 %15, 8192
  %.not.i = icmp eq i64 %16, 0
  br i1 %.not.i, label %20, label %17

17:                                               ; preds = %14
  %18 = lshr i64 %15, 15
  %19 = and i64 %18, 127
  br label %rb_array_len.exit

20:                                               ; preds = %14
  %21 = load i64, ptr %13, align 8, !tbaa !30
  br label %rb_array_len.exit

rb_array_len.exit:                                ; preds = %17, %20
  %.0.i17 = phi i64 [ %19, %17 ], [ %21, %20 ]
  %22 = icmp sgt i64 %.0.i17, %indvars.iv
  br i1 %22, label %23, label %.loopexit

23:                                               ; preds = %rb_array_len.exit
  %24 = tail call i64 @rb_ary_entry(i64 noundef %0, i64 noundef %indvars.iv) #12
  %25 = icmp eq i64 %24, 0
  %26 = and i64 %24, 7
  %27 = icmp ne i64 %26, 0
  %28 = or i1 %25, %27
  br i1 %28, label %rbimpl_RB_TYPE_P_fastpath.exit.thread, label %rbimpl_RB_TYPE_P_fastpath.exit

rbimpl_RB_TYPE_P_fastpath.exit:                   ; preds = %23
  %29 = inttoptr i64 %24 to ptr
  %30 = load i64, ptr %29, align 8, !tbaa !18
  %31 = and i64 %30, 31
  %32 = icmp eq i64 %31, 7
  br i1 %32, label %33, label %rbimpl_RB_TYPE_P_fastpath.exit.thread

33:                                               ; preds = %rbimpl_RB_TYPE_P_fastpath.exit
  %34 = tail call i64 @rb_ary_entry(i64 noundef %24, i64 noundef 0) #12
  br label %rbimpl_RB_TYPE_P_fastpath.exit.thread

rbimpl_RB_TYPE_P_fastpath.exit.thread:            ; preds = %23, %33, %rbimpl_RB_TYPE_P_fastpath.exit
  %.013 = phi i64 [ %34, %33 ], [ %24, %rbimpl_RB_TYPE_P_fastpath.exit ], [ %24, %23 ]
  %35 = tail call i64 @rb_String(i64 noundef %.013) #9
  %36 = tail call i64 @rb_str_append(i64 noundef %12, i64 noundef %35) #9
  %37 = load i64, ptr %7, align 8, !tbaa !18
  %38 = and i64 %37, 8192
  %.not.i18 = icmp eq i64 %38, 0
  br i1 %.not.i18, label %42, label %39

39:                                               ; preds = %rbimpl_RB_TYPE_P_fastpath.exit.thread
  %40 = lshr i64 %37, 15
  %41 = and i64 %40, 127
  br label %rb_array_len.exit20

42:                                               ; preds = %rbimpl_RB_TYPE_P_fastpath.exit.thread
  %43 = load i64, ptr %13, align 8, !tbaa !30
  br label %rb_array_len.exit20

rb_array_len.exit20:                              ; preds = %39, %42
  %.0.i19 = phi i64 [ %41, %39 ], [ %43, %42 ]
  %44 = add nsw i64 %.0.i19, -1
  %45 = icmp sgt i64 %44, %indvars.iv
  br i1 %45, label %46, label %48

46:                                               ; preds = %rb_array_len.exit20
  %47 = tail call i64 @rb_str_cat(i64 noundef %12, ptr noundef nonnull @.str.197, i64 noundef 1) #9
  br label %48

48:                                               ; preds = %rb_array_len.exit20, %46
  %indvars.iv.next = add nuw nsw i64 %indvars.iv, 1
  br label %14, !llvm.loop !65

rbimpl_RB_TYPE_P_fastpath.exit16.thread:          ; preds = %1, %rbimpl_RB_TYPE_P_fastpath.exit16
  store i64 %0, ptr %2, align 8, !tbaa !10
  %49 = call i64 @rb_string_value(ptr noundef nonnull %2) #9
  %.pre = load i64, ptr %2, align 8, !tbaa !10
  br label %.loopexit

.loopexit:                                        ; preds = %rb_array_len.exit, %rbimpl_RB_TYPE_P_fastpath.exit16.thread
  %50 = phi i64 [ %.pre, %rbimpl_RB_TYPE_P_fastpath.exit16.thread ], [ %12, %rb_array_len.exit ]
  call void @llvm.lifetime.end.p0(i64 8, ptr nonnull %2) #9
  ret i64 %50
}